target datalayout = "e-m:e-p270:32:32-p271:32:32-p272:64:64-i64:64-i128:128-f80:128-n8:16:32:64-S128"
target triple = "x86_64-pc-linux-gnu"

%struct.AVOption = type { ptr, ptr, i32, i32, %union.anon, double, double, i32, ptr }
%union.anon = type { i64 }
%struct.AVOptionRanges = type { ptr, i32, i32 }
%struct.AVOptionRange = type { ptr, double, double, double, double, i32 }

; Function Attrs: nounwind uwtable
define ptr @av_opt_find(ptr noundef %0, ptr noundef %1, ptr noundef %2, i32 noundef %3, i32 noundef %4) #0 {
  %6 = alloca ptr, align 8
  %7 = alloca ptr, align 8
  %8 = alloca ptr, align 8
  %9 = alloca i32, align 4
  %10 = alloca i32, align 4
  store ptr %0, ptr %6, align 8, !tbaa !4
  store ptr %1, ptr %7, align 8, !tbaa !19
  store ptr %2, ptr %8, align 8, !tbaa !19
  store i32 %3, ptr %9, align 4, !tbaa !20
  store i32 %4, ptr %10, align 4, !tbaa !20
  %11 = load ptr, ptr %6, align 8, !tbaa !4
  %12 = load ptr, ptr %7, align 8, !tbaa !19
  %13 = load ptr, ptr %8, align 8, !tbaa !19
  %14 = load i32, ptr %9, align 4, !tbaa !20
  %15 = load i32, ptr %10, align 4, !tbaa !20
  %16 = call ptr @av_opt_find2(ptr noundef %11, ptr noundef %12, ptr noundef %13, i32 noundef %14, i32 noundef %15, ptr noundef null)
  ret ptr %16
}

; Function Attrs: nounwind uwtable
define i32 @av_opt_query_ranges_default(ptr noundef %0, ptr noundef %1, ptr noundef %2, i32 noundef %3) #0 {
  %5 = alloca i32, align 4
  %6 = alloca ptr, align 8
  %7 = alloca ptr, align 8
  %8 = alloca ptr, align 8
  %9 = alloca i32, align 4
  %10 = alloca ptr, align 8
  %11 = alloca ptr, align 8
  %12 = alloca ptr, align 8
  %13 = alloca ptr, align 8
  %14 = alloca i32, align 4
  %15 = alloca i32, align 4
  store ptr %0, ptr %6, align 8, !tbaa !119
  store ptr %1, ptr %7, align 8, !tbaa !4
  store ptr %2, ptr %8, align 8, !tbaa !19
  store i32 %3, ptr %9, align 4, !tbaa !20
  call void @llvm.lifetime.start.p0(i64 8, ptr %10) #11
  %16 = call noalias ptr @av_mallocz(i64 noundef 16)
  store ptr %16, ptr %10, align 8, !tbaa !82
  call void @llvm.lifetime.start.p0(i64 8, ptr %11) #11
  %17 = call noalias ptr @av_mallocz(i64 noundef 8)
  store ptr %17, ptr %11, align 8, !tbaa !123
  call void @llvm.lifetime.start.p0(i64 8, ptr %12) #11
  %18 = call noalias ptr @av_mallocz(i64 noundef 48)
  store ptr %18, ptr %12, align 8, !tbaa !88
  call void @llvm.lifetime.start.p0(i64 8, ptr %13) #11
  %19 = load ptr, ptr %7, align 8, !tbaa !4
  %20 = load ptr, ptr %8, align 8, !tbaa !19
  %21 = load i32, ptr %9, align 4, !tbaa !20
  %22 = call ptr @av_opt_find(ptr noundef %19, ptr noundef %20, ptr noundef null, i32 noundef 0, i32 noundef %21)
  store ptr %22, ptr %13, align 8, !tbaa !8
  call void @llvm.lifetime.start.p0(i64 4, ptr %14) #11
  %23 = load ptr, ptr %6, align 8, !tbaa !119
  store ptr null, ptr %23, align 8, !tbaa !82
  %24 = load ptr, ptr %10, align 8, !tbaa !82
  %25 = icmp ne ptr %24, null
  br i1 %25, label %26, label %35

26:                                               ; preds = %4
  %27 = load ptr, ptr %12, align 8, !tbaa !88
  %28 = icmp ne ptr %27, null
  br i1 %28, label %29, label %35

29:                                               ; preds = %26
  %30 = load ptr, ptr %11, align 8, !tbaa !123
  %31 = icmp ne ptr %30, null
  br i1 %31, label %32, label %35

32:                                               ; preds = %29
  %33 = load ptr, ptr %13, align 8, !tbaa !8
  %34 = icmp ne ptr %33, null
  br i1 %34, label %36, label %35

35:                                               ; preds = %32, %29, %26, %4
  store i32 -12, ptr %14, align 4, !tbaa !20
  br label %101

36:                                               ; preds = %32
  %37 = load ptr, ptr %11, align 8, !tbaa !123
  %38 = load ptr, ptr %10, align 8, !tbaa !82
  %39 = getelementptr inbounds nuw %struct.AVOptionRanges, ptr %38, i32 0, i32 0
  store ptr %37, ptr %39, align 8, !tbaa !87
  %40 = load ptr, ptr %12, align 8, !tbaa !88
  %41 = load ptr, ptr %10, align 8, !tbaa !82
  %42 = getelementptr inbounds nuw %struct.AVOptionRanges, ptr %41, i32 0, i32 0
  %43 = load ptr, ptr %42, align 8, !tbaa !87
  %44 = getelementptr inbounds ptr, ptr %43, i64 0
  store ptr %40, ptr %44, align 8, !tbaa !88
  %45 = load ptr, ptr %10, align 8, !tbaa !82
  %46 = getelementptr inbounds nuw %struct.AVOptionRanges, ptr %45, i32 0, i32 1
  store i32 1, ptr %46, align 8, !tbaa !84
  %47 = load ptr, ptr %10, align 8, !tbaa !82
  %48 = getelementptr inbounds nuw %struct.AVOptionRanges, ptr %47, i32 0, i32 2
  store i32 1, ptr %48, align 4, !tbaa !122
  %49 = load ptr, ptr %12, align 8, !tbaa !88
  %50 = getelementptr inbounds nuw %struct.AVOptionRange, ptr %49, i32 0, i32 5
  store i32 1, ptr %50, align 8, !tbaa !124
  %51 = load ptr, ptr %13, align 8, !tbaa !8
  %52 = getelementptr inbounds nuw %struct.AVOption, ptr %51, i32 0, i32 5
  %53 = load double, ptr %52, align 8, !tbaa !49
  %54 = load ptr, ptr %12, align 8, !tbaa !88
  %55 = getelementptr inbounds nuw %struct.AVOptionRange, ptr %54, i32 0, i32 1
  store double %53, ptr %55, align 8, !tbaa !90
  %56 = load ptr, ptr %13, align 8, !tbaa !8
  %57 = getelementptr inbounds nuw %struct.AVOption, ptr %56, i32 0, i32 6
  %58 = load double, ptr %57, align 8, !tbaa !50
  %59 = load ptr, ptr %12, align 8, !tbaa !88
  %60 = getelementptr inbounds nuw %struct.AVOptionRange, ptr %59, i32 0, i32 2
  store double %58, ptr %60, align 8, !tbaa !92
  %61 = load ptr, ptr %13, align 8, !tbaa !8
  %62 = getelementptr inbounds nuw %struct.AVOption, ptr %61, i32 0, i32 3
  %63 = load i32, ptr %62, align 4, !tbaa !21
  switch i32 %63, label %97 [
    i32 18, label %64
    i32 2, label %64
    i32 20, label %64
    i32 3, label %64
    i32 10, label %64
    i32 13, label %64
    i32 14, label %64
    i32 5, label %64
    i32 4, label %64
    i32 16, label %64
    i32 17, label %64
    i32 6, label %65
    i32 7, label %74
    i32 12, label %79
    i32 15, label %88
  ]

64:                                               ; preds = %36, %36, %36, %36, %36, %36, %36, %36, %36, %36, %36
  br label %98

65:                                               ; preds = %36
  %66 = load ptr, ptr %12, align 8, !tbaa !88
  %67 = getelementptr inbounds nuw %struct.AVOptionRange, ptr %66, i32 0, i32 3
  store double 0.000000e+00, ptr %67, align 8, !tbaa !125
  %68 = load ptr, ptr %12, align 8, !tbaa !88
  %69 = getelementptr inbounds nuw %struct.AVOptionRange, ptr %68, i32 0, i32 4
  store double 0x4130FFFF00000000, ptr %69, align 8, !tbaa !126
  %70 = load ptr, ptr %12, align 8, !tbaa !88
  %71 = getelementptr inbounds nuw %struct.AVOptionRange, ptr %70, i32 0, i32 1
  store double -1.000000e+00, ptr %71, align 8, !tbaa !90
  %72 = load ptr, ptr %12, align 8, !tbaa !88
  %73 = getelementptr inbounds nuw %struct.AVOptionRange, ptr %72, i32 0, i32 2
  store double 0x41DFFFFFFFC00000, ptr %73, align 8, !tbaa !92
  br label %98

74:                                               ; preds = %36
  %75 = load ptr, ptr %12, align 8, !tbaa !88
  %76 = getelementptr inbounds nuw %struct.AVOptionRange, ptr %75, i32 0, i32 3
  store double 0xC1E0000000000000, ptr %76, align 8, !tbaa !125
  %77 = load ptr, ptr %12, align 8, !tbaa !88
  %78 = getelementptr inbounds nuw %struct.AVOptionRange, ptr %77, i32 0, i32 4
  store double 0x41DFFFFFFFC00000, ptr %78, align 8, !tbaa !126
  br label %98

79:                                               ; preds = %36
  %80 = load ptr, ptr %12, align 8, !tbaa !88
  %81 = getelementptr inbounds nuw %struct.AVOptionRange, ptr %80, i32 0, i32 3
  store double 0.000000e+00, ptr %81, align 8, !tbaa !125
  %82 = load ptr, ptr %12, align 8, !tbaa !88
  %83 = getelementptr inbounds nuw %struct.AVOptionRange, ptr %82, i32 0, i32 4
  store double 0x413FFFFF00000000, ptr %83, align 8, !tbaa !126
  %84 = load ptr, ptr %12, align 8, !tbaa !88
  %85 = getelementptr inbounds nuw %struct.AVOptionRange, ptr %84, i32 0, i32 1
  store double 0.000000e+00, ptr %85, align 8, !tbaa !90
  %86 = load ptr, ptr %12, align 8, !tbaa !88
  %87 = getelementptr inbounds nuw %struct.AVOptionRange, ptr %86, i32 0, i32 2
  store double 0x41AFFFFFFE000000, ptr %87, align 8, !tbaa !92
  br label %98

88:                                               ; preds = %36
  %89 = load ptr, ptr %12, align 8, !tbaa !88
  %90 = getelementptr inbounds nuw %struct.AVOptionRange, ptr %89, i32 0, i32 3
  store double 1.000000e+00, ptr %90, align 8, !tbaa !125
  %91 = load ptr, ptr %12, align 8, !tbaa !88
  %92 = getelementptr inbounds nuw %struct.AVOptionRange, ptr %91, i32 0, i32 4
  store double 0x41DFFFFFFFC00000, ptr %92, align 8, !tbaa !126
  %93 = load ptr, ptr %12, align 8, !tbaa !88
  %94 = getelementptr inbounds nuw %struct.AVOptionRange, ptr %93, i32 0, i32 1
  store double 1.000000e+00, ptr %94, align 8, !tbaa !90
  %95 = load ptr, ptr %12, align 8, !tbaa !88
  %96 = getelementptr inbounds nuw %struct.AVOptionRange, ptr %95, i32 0, i32 2
  store double 0x41DFFFFFFFC00000, ptr %96, align 8, !tbaa !92
  br label %98

97:                                               ; preds = %36
  store i32 -38, ptr %14, align 4, !tbaa !20
  br label %101

98:                                               ; preds = %88, %79, %74, %65, %64
  %99 = load ptr, ptr %10, align 8, !tbaa !82
  %100 = load ptr, ptr %6, align 8, !tbaa !119
  store ptr %99, ptr %100, align 8, !tbaa !82
  store i32 1, ptr %5, align 4
  store i32 1, ptr %15, align 4
  br label %106

101:                                              ; preds = %97, %35
  %102 = load ptr, ptr %10, align 8, !tbaa !82
  call void @av_free(ptr noundef %102)
  %103 = load ptr, ptr %12, align 8, !tbaa !88
  call void @av_free(ptr noundef %103)
  %104 = load ptr, ptr %11, align 8, !tbaa !123
  call void @av_free(ptr noundef %104)
  %105 = load i32, ptr %14, align 4, !tbaa !20
  store i32 %105, ptr %5, align 4
  store i32 1, ptr %15, align 4
  br label %106

106:                                              ; preds = %101, %98
  call void @llvm.lifetime.end.p0(i64 4, ptr %14) #11
  call void @llvm.lifetime.end.p0(i64 8, ptr %13) #11
  call void @llvm.lifetime.end.p0(i64 8, ptr %12) #11
  call void @llvm.lifetime.end.p0(i64 8, ptr %11) #11
  call void @llvm.lifetime.end.p0(i64 8, ptr %10) #11
  %107 = load i32, ptr %5, align 4
  ret i32 %107
}