; Function Attrs: nounwind uwtable
define range(i32 -38, 2) i32 @av_opt_query_ranges_default(ptr noundef writeonly captures(none) initializes((0, 8)) %0, ptr noundef %1, ptr noundef %2, i32 noundef %3) local_unnamed_addr #2 {
  %5 = tail call noalias ptr @av_mallocz(i64 noundef 16) #18
  %6 = tail call noalias ptr @av_mallocz(i64 noundef 8) #18
  %7 = tail call noalias ptr @av_mallocz(i64 noundef 48) #18
  %8 = tail call ptr @av_opt_find2(ptr noundef %1, ptr noundef %2, ptr noundef null, i32 noundef 0, i32 noundef %3, ptr noundef null)
  store ptr null, ptr %0, align 8, !tbaa !71
  %9 = icmp ne ptr %5, null
  %10 = icmp ne ptr %7, null
  %or.cond = select i1 %9, i1 %10, i1 false
  %11 = icmp ne ptr %6, null
  %or.cond3 = select i1 %or.cond, i1 %11, i1 false
  %12 = icmp ne ptr %8, null
  %or.cond5 = select i1 %or.cond3, i1 %12, i1 false
  br i1 %or.cond5, label %13, label %38

13:                                               ; preds = %4
  store ptr %6, ptr %5, align 8, !tbaa !77
  store ptr %7, ptr %6, align 8, !tbaa !78
  %14 = getelementptr inbounds nuw i8, ptr %5, i64 8
  store i32 1, ptr %14, align 8, !tbaa !76
  %15 = getelementptr inbounds nuw i8, ptr %5, i64 12
  store i32 1, ptr %15, align 4, !tbaa !73
  %16 = getelementptr inbounds nuw i8, ptr %7, i64 40
  store i32 1, ptr %16, align 8, !tbaa !105
  %17 = getelementptr inbounds nuw i8, ptr %8, i64 32
  %18 = load double, ptr %17, align 8, !tbaa !39
  %19 = getelementptr inbounds nuw i8, ptr %7, i64 8
  store double %18, ptr %19, align 8, !tbaa !80
  %20 = getelementptr inbounds nuw i8, ptr %8, i64 40
  %21 = load double, ptr %20, align 8, !tbaa !40
  %22 = getelementptr inbounds nuw i8, ptr %7, i64 16
  store double %21, ptr %22, align 8, !tbaa !82
  %23 = getelementptr inbounds nuw i8, ptr %8, i64 20
  %24 = load i32, ptr %23, align 4, !tbaa !18
  switch i32 %24, label %38 [
    i32 18, label %37
    i32 2, label %37
    i32 20, label %37
    i32 3, label %37
    i32 10, label %37
    i32 13, label %37
    i32 14, label %37
    i32 5, label %37
    i32 4, label %37
    i32 16, label %37
    i32 17, label %37
    i32 6, label %25
    i32 7, label %28
    i32 12, label %31
    i32 15, label %34
  ]

25:                                               ; preds = %13
  %26 = getelementptr inbounds nuw i8, ptr %7, i64 24
  store double 0.000000e+00, ptr %26, align 8, !tbaa !106
  %27 = getelementptr inbounds nuw i8, ptr %7, i64 32
  store double 0x4130FFFF00000000, ptr %27, align 8, !tbaa !107
  store double -1.000000e+00, ptr %19, align 8, !tbaa !80
  store double 0x41DFFFFFFFC00000, ptr %22, align 8, !tbaa !82
  br label %37

28:                                               ; preds = %13
  %29 = getelementptr inbounds nuw i8, ptr %7, i64 24
  store double 0xC1E0000000000000, ptr %29, align 8, !tbaa !106
  %30 = getelementptr inbounds nuw i8, ptr %7, i64 32
  store double 0x41DFFFFFFFC00000, ptr %30, align 8, !tbaa !107
  br label %37

31:                                               ; preds = %13
  %32 = getelementptr inbounds nuw i8, ptr %7, i64 24
  store double 0.000000e+00, ptr %32, align 8, !tbaa !106
  %33 = getelementptr inbounds nuw i8, ptr %7, i64 32
  store double 0x413FFFFF00000000, ptr %33, align 8, !tbaa !107
  store double 0.000000e+00, ptr %19, align 8, !tbaa !80
  store double 0x41AFFFFFFE000000, ptr %22, align 8, !tbaa !82
  br label %37

34:                                               ; preds = %13
  %35 = getelementptr inbounds nuw i8, ptr %7, i64 24
  store double 1.000000e+00, ptr %35, align 8, !tbaa !106
  %36 = getelementptr inbounds nuw i8, ptr %7, i64 32
  store double 0x41DFFFFFFFC00000, ptr %36, align 8, !tbaa !107
  store double 1.000000e+00, ptr %19, align 8, !tbaa !80
  store double 0x41DFFFFFFFC00000, ptr %22, align 8, !tbaa !82
  br label %37

37:                                               ; preds = %13, %13, %13, %13, %13, %13, %13, %13, %13, %13, %13, %34, %31, %28, %25
  store ptr %5, ptr %0, align 8, !tbaa !71
  br label %39

38:                                               ; preds = %13, %4
  %.0 = phi i32 [ -12, %4 ], [ -38, %13 ]
  tail call void @av_free(ptr noundef %5) #18
  tail call void @av_free(ptr noundef %7) #18
  tail call void @av_free(ptr noundef %6) #18
  br label %39

39:                                               ; preds = %38, %37
  %.045 = phi i32 [ %.0, %38 ], [ 1, %37 ]
  ret i32 %.045
}